target datalayout = "e-m:e-p270:32:32-p271:32:32-p272:64:64-i64:64-i128:128-f80:128-n8:16:32:64-S128"
target triple = "x86_64-pc-linux-gnu"

@wolfSSL_ERR_error_string.tmp = internal global [80 x i8] zeroinitializer, align 16

; Function Attrs: nounwind uwtable
define ptr @wolfSSL_ERR_error_string(i64 noundef %0, ptr noundef %1) #0 {
  %3 = alloca ptr, align 8
  %4 = alloca i64, align 8
  %5 = alloca ptr, align 8
  store i64 %0, ptr %4, align 8, !tbaa !22
  store ptr %1, ptr %5, align 8, !tbaa !21
  br label %6

6:                                                ; preds = %2
  br label %7

7:                                                ; preds = %6
  %8 = load ptr, ptr %5, align 8, !tbaa !21
  %9 = icmp ne ptr %8, null
  br i1 %9, label %10, label %15

10:                                               ; preds = %7
  %11 = load i64, ptr %4, align 8, !tbaa !22
  %12 = trunc i64 %11 to i32
  %13 = load ptr, ptr %5, align 8, !tbaa !21
  call void @SetErrorString(i32 noundef %12, ptr noundef %13)
  %14 = load ptr, ptr %5, align 8, !tbaa !21
  store ptr %14, ptr %3, align 8
  br label %18

15:                                               ; preds = %7
  %16 = load i64, ptr %4, align 8, !tbaa !22
  %17 = trunc i64 %16 to i32
  call void @SetErrorString(i32 noundef %17, ptr noundef @wolfSSL_ERR_error_string.tmp)
  store ptr @wolfSSL_ERR_error_string.tmp, ptr %3, align 8
  br label %18

18:                                               ; preds = %15, %10
  %19 = load ptr, ptr %3, align 8
  ret ptr %19
}

; Function Attrs: nounwind uwtable
define void @wolfSSL_ERR_error_string_n(i64 noundef %0, ptr noundef %1, i64 noundef %2) #0 {
  %4 = alloca i64, align 8
  %5 = alloca ptr, align 8
  %6 = alloca i64, align 8
  %7 = alloca [80 x i8], align 16
  store i64 %0, ptr %4, align 8, !tbaa !22
  store ptr %1, ptr %5, align 8, !tbaa !21
  store i64 %2, ptr %6, align 8, !tbaa !22
  br label %8

8:                                                ; preds = %3
  br label %9

9:                                                ; preds = %8
  %10 = load i64, ptr %6, align 8, !tbaa !22
  %11 = icmp uge i64 %10, 80
  br i1 %11, label %12, label %16

12:                                               ; preds = %9
  %13 = load i64, ptr %4, align 8, !tbaa !22
  %14 = load ptr, ptr %5, align 8, !tbaa !21
  %15 = call ptr @wolfSSL_ERR_error_string(i64 noundef %13, ptr noundef %14)
  br label %34

16:                                               ; preds = %9
  br label %17

17:                                               ; preds = %16
  br label %18

18:                                               ; preds = %17
  %19 = load i64, ptr %6, align 8, !tbaa !22
  %20 = icmp ne i64 %19, 0
  br i1 %20, label %21, label %33

21:                                               ; preds = %18
  call void @llvm.lifetime.start.p0(i64 80, ptr %7) #9
  %22 = load i64, ptr %4, align 8, !tbaa !22
  %23 = getelementptr inbounds [80 x i8], ptr %7, i64 0, i64 0
  %24 = call ptr @wolfSSL_ERR_error_string(i64 noundef %22, ptr noundef %23)
  %25 = load ptr, ptr %5, align 8, !tbaa !21
  %26 = getelementptr inbounds [80 x i8], ptr %7, i64 0, i64 0
  %27 = load i64, ptr %6, align 8, !tbaa !22
  %28 = sub i64 %27, 1
  call void @llvm.memcpy.p0.p0.i64(ptr align 1 %25, ptr align 16 %26, i64 %28, i1 false)
  %29 = load ptr, ptr %5, align 8, !tbaa !21
  %30 = load i64, ptr %6, align 8, !tbaa !22
  %31 = sub i64 %30, 1
  %32 = getelementptr inbounds nuw i8, ptr %29, i64 %31
  store i8 0, ptr %32, align 1, !tbaa !20
  call void @llvm.lifetime.end.p0(i64 80, ptr %7) #9
  br label %33

33:                                               ; preds = %21, %18
  br label %34

34:                                               ; preds = %33, %12
  ret void
}