; Function Attrs: nounwind uwtable
define void @wolfSSL_ERR_error_string_n(i64 noundef %0, ptr noundef %1, i64 noundef %2) local_unnamed_addr #0 {
  %4 = alloca [80 x i8], align 16
  %5 = icmp ugt i64 %2, 79
  br i1 %5, label %6, label %8

6:                                                ; preds = %3
  %.not.i = icmp eq ptr %1, null
  %7 = trunc i64 %0 to i32
  %wolfSSL_ERR_error_string.tmp..i = select i1 %.not.i, ptr @wolfSSL_ERR_error_string.tmp, ptr %1
  tail call void @SetErrorString(i32 noundef %7, ptr noundef nonnull %wolfSSL_ERR_error_string.tmp..i) #22
  br label %13

8:                                                ; preds = %3
  %.not = icmp eq i64 %2, 0
  br i1 %.not, label %13, label %9

9:                                                ; preds = %8
  call void @llvm.lifetime.start.p0(i64 80, ptr nonnull %4) #22
  %10 = trunc i64 %0 to i32
  call void @SetErrorString(i32 noundef %10, ptr noundef nonnull %4) #22
  %11 = add nsw i64 %2, -1
  call void @llvm.memcpy.p0.p0.i64(ptr align 1 %1, ptr nonnull align 16 %4, i64 %11, i1 false)
  %12 = getelementptr inbounds nuw i8, ptr %1, i64 %11
  store i8 0, ptr %12, align 1, !tbaa !43
  call void @llvm.lifetime.end.p0(i64 80, ptr nonnull %4) #22
  br label %13

13:                                               ; preds = %8, %9, %6
  ret void
}